target datalayout = "e-m:e-p270:32:32-p271:32:32-p272:64:64-i64:64-i128:128-f80:128-n8:16:32:64-S128"
target triple = "x86_64-pc-linux-gnu"

%struct.prov_des_ctx_st = type { %struct.prov_cipher_ctx_st, %union.anon.0, %union.anon.2 }
%struct.prov_cipher_ctx_st = type { [16 x i8], [16 x i8], [16 x i8], ptr, %union.anon, i32, i64, i64, i64, i64, i32, i8, i32, ptr, i32, i64, i32, i64, i32, ptr, ptr, ptr }
%union.anon = type { ptr }
%union.anon.0 = type { double, [120 x i8] }
%union.anon.2 = type { ptr }

; Function Attrs: nounwind uwtable
define internal i32 @cipher_hw_des_cbc_cipher(ptr noundef %0, ptr noundef %1, ptr noundef %2, i64 noundef %3) #0 {
  %5 = alloca i32, align 4
  %6 = alloca ptr, align 8
  %7 = alloca ptr, align 8
  %8 = alloca ptr, align 8
  %9 = alloca i64, align 8
  %10 = alloca ptr, align 8
  %11 = alloca ptr, align 8
  %12 = alloca i32, align 4
  store ptr %0, ptr %6, align 8, !tbaa !3
  store ptr %1, ptr %7, align 8, !tbaa !8
  store ptr %2, ptr %8, align 8, !tbaa !8
  store i64 %3, ptr %9, align 8, !tbaa !10
  call void @llvm.lifetime.start.p0(i64 8, ptr %10) #5
  %13 = load ptr, ptr %6, align 8, !tbaa !3
  store ptr %13, ptr %10, align 8, !tbaa !12
  call void @llvm.lifetime.start.p0(i64 8, ptr %11) #5
  %14 = load ptr, ptr %10, align 8, !tbaa !12
  %15 = getelementptr inbounds nuw %struct.prov_des_ctx_st, ptr %14, i32 0, i32 1
  store ptr %15, ptr %11, align 8, !tbaa !14
  %16 = load ptr, ptr %10, align 8, !tbaa !12
  %17 = getelementptr inbounds nuw %struct.prov_des_ctx_st, ptr %16, i32 0, i32 2
  %18 = load ptr, ptr %17, align 8, !tbaa !16
  %19 = icmp ne ptr %18, null
  br i1 %19, label %20, label %31

20:                                               ; preds = %4
  %21 = load ptr, ptr %10, align 8, !tbaa !12
  %22 = getelementptr inbounds nuw %struct.prov_des_ctx_st, ptr %21, i32 0, i32 2
  %23 = load ptr, ptr %22, align 8, !tbaa !16
  %24 = load ptr, ptr %8, align 8, !tbaa !8
  %25 = load ptr, ptr %7, align 8, !tbaa !8
  %26 = load i64, ptr %9, align 8, !tbaa !10
  %27 = load ptr, ptr %11, align 8, !tbaa !14
  %28 = load ptr, ptr %6, align 8, !tbaa !3
  %29 = getelementptr inbounds nuw %struct.prov_cipher_ctx_st, ptr %28, i32 0, i32 2
  %30 = getelementptr inbounds [16 x i8], ptr %29, i64 0, i64 0
  call void %23(ptr noundef %24, ptr noundef %25, i64 noundef %26, ptr noundef %27, ptr noundef %30)
  store i32 1, ptr %5, align 4
  store i32 1, ptr %12, align 4
  br label %72

31:                                               ; preds = %4
  br label %32

32:                                               ; preds = %35, %31
  %33 = load i64, ptr %9, align 8, !tbaa !10
  %34 = icmp uge i64 %33, 1073741824
  br i1 %34, label %35, label %54

35:                                               ; preds = %32
  %36 = load ptr, ptr %8, align 8, !tbaa !8
  %37 = load ptr, ptr %7, align 8, !tbaa !8
  %38 = load ptr, ptr %11, align 8, !tbaa !14
  %39 = load ptr, ptr %6, align 8, !tbaa !3
  %40 = getelementptr inbounds nuw %struct.prov_cipher_ctx_st, ptr %39, i32 0, i32 2
  %41 = getelementptr inbounds [16 x i8], ptr %40, i64 0, i64 0
  %42 = load ptr, ptr %6, align 8, !tbaa !3
  %43 = getelementptr inbounds nuw %struct.prov_cipher_ctx_st, ptr %42, i32 0, i32 11
  %44 = load i8, ptr %43, align 4
  %45 = lshr i8 %44, 1
  %46 = and i8 %45, 1
  %47 = zext i8 %46 to i32
  call void @DES_ncbc_encrypt(ptr noundef %36, ptr noundef %37, i64 noundef 1073741824, ptr noundef %38, ptr noundef %41, i32 noundef %47)
  %48 = load i64, ptr %9, align 8, !tbaa !10
  %49 = sub i64 %48, 1073741824
  store i64 %49, ptr %9, align 8, !tbaa !10
  %50 = load ptr, ptr %8, align 8, !tbaa !8
  %51 = getelementptr inbounds nuw i8, ptr %50, i64 1073741824
  store ptr %51, ptr %8, align 8, !tbaa !8
  %52 = load ptr, ptr %7, align 8, !tbaa !8
  %53 = getelementptr inbounds nuw i8, ptr %52, i64 1073741824
  store ptr %53, ptr %7, align 8, !tbaa !8
  br label %32, !llvm.loop !30

54:                                               ; preds = %32
  %55 = load i64, ptr %9, align 8, !tbaa !10
  %56 = icmp ugt i64 %55, 0
  br i1 %56, label %57, label %71

57:                                               ; preds = %54
  %58 = load ptr, ptr %8, align 8, !tbaa !8
  %59 = load ptr, ptr %7, align 8, !tbaa !8
  %60 = load i64, ptr %9, align 8, !tbaa !10
  %61 = load ptr, ptr %11, align 8, !tbaa !14
  %62 = load ptr, ptr %6, align 8, !tbaa !3
  %63 = getelementptr inbounds nuw %struct.prov_cipher_ctx_st, ptr %62, i32 0, i32 2
  %64 = getelementptr inbounds [16 x i8], ptr %63, i64 0, i64 0
  %65 = load ptr, ptr %6, align 8, !tbaa !3
  %66 = getelementptr inbounds nuw %struct.prov_cipher_ctx_st, ptr %65, i32 0, i32 11
  %67 = load i8, ptr %66, align 4
  %68 = lshr i8 %67, 1
  %69 = and i8 %68, 1
  %70 = zext i8 %69 to i32
  call void @DES_ncbc_encrypt(ptr noundef %58, ptr noundef %59, i64 noundef %60, ptr noundef %61, ptr noundef %64, i32 noundef %70)
  br label %71

71:                                               ; preds = %57, %54
  store i32 1, ptr %5, align 4
  store i32 1, ptr %12, align 4
  br label %72

72:                                               ; preds = %71, %20
  call void @llvm.lifetime.end.p0(i64 8, ptr %11) #5
  call void @llvm.lifetime.end.p0(i64 8, ptr %10) #5
  %73 = load i32, ptr %5, align 4
  ret i32 %73
}