; Function Attrs: nounwind uwtable
define internal noundef i32 @cipher_hw_des_cbc_cipher(ptr noundef %0, ptr noundef %1, ptr noundef %2, i64 noundef %3) #1 {
  %5 = getelementptr inbounds nuw i8, ptr %0, i64 192
  %6 = getelementptr inbounds nuw i8, ptr %0, i64 320
  %7 = load ptr, ptr %6, align 8, !tbaa !3
  %.not = icmp eq ptr %7, null
  br i1 %.not, label %.preheader, label %11

.preheader:                                       ; preds = %4
  %8 = icmp ugt i64 %3, 1073741823
  br i1 %8, label %.lr.ph, label %._crit_edge

.lr.ph:                                           ; preds = %.preheader
  %9 = getelementptr inbounds nuw i8, ptr %0, i64 32
  %10 = getelementptr inbounds nuw i8, ptr %0, i64 108
  br label %13

11:                                               ; preds = %4
  %12 = getelementptr inbounds nuw i8, ptr %0, i64 32
  tail call void %7(ptr noundef %2, ptr noundef %1, i64 noundef %3, ptr noundef nonnull %5, ptr noundef nonnull %12) #7
  br label %29

13:                                               ; preds = %.lr.ph, %13
  %.02531 = phi ptr [ %1, %.lr.ph ], [ %20, %13 ]
  %.02630 = phi i64 [ %3, %.lr.ph ], [ %18, %13 ]
  %.02729 = phi ptr [ %2, %.lr.ph ], [ %19, %13 ]
  %14 = load i8, ptr %10, align 4
  %15 = lshr i8 %14, 1
  %16 = and i8 %15, 1
  %17 = zext nneg i8 %16 to i32
  tail call void @DES_ncbc_encrypt(ptr noundef %.02729, ptr noundef %.02531, i64 noundef 1073741824, ptr noundef nonnull %5, ptr noundef nonnull %9, i32 noundef %17) #7
  %18 = add i64 %.02630, -1073741824
  %19 = getelementptr inbounds nuw i8, ptr %.02729, i64 1073741824
  %20 = getelementptr inbounds nuw i8, ptr %.02531, i64 1073741824
  %21 = icmp ugt i64 %18, 1073741823
  br i1 %21, label %13, label %._crit_edge, !llvm.loop !24

._crit_edge:                                      ; preds = %13, %.preheader
  %.027.lcssa = phi ptr [ %2, %.preheader ], [ %19, %13 ]
  %.026.lcssa = phi i64 [ %3, %.preheader ], [ %18, %13 ]
  %.025.lcssa = phi ptr [ %1, %.preheader ], [ %20, %13 ]
  %.not28 = icmp eq i64 %.026.lcssa, 0
  br i1 %.not28, label %29, label %22

22:                                               ; preds = %._crit_edge
  %23 = getelementptr inbounds nuw i8, ptr %0, i64 32
  %24 = getelementptr inbounds nuw i8, ptr %0, i64 108
  %25 = load i8, ptr %24, align 4
  %26 = lshr i8 %25, 1
  %27 = and i8 %26, 1
  %28 = zext nneg i8 %27 to i32
  tail call void @DES_ncbc_encrypt(ptr noundef %.027.lcssa, ptr noundef %.025.lcssa, i64 noundef %.026.lcssa, ptr noundef nonnull %5, ptr noundef nonnull %23, i32 noundef %28) #7
  br label %29

29:                                               ; preds = %._crit_edge, %22, %11
  ret i32 1
}